; ModuleID = '5/1111.c'
source_filename = "5/1111.c"
target datalayout = "e-m:e-p270:32:32-p271:32:32-p272:64:64-i64:64-f80:128-n8:16:32:64-S128"
target triple = "x86_64-pc-linux-gnu"

@.str = private unnamed_addr constant [4 x i8] c"%lf\00", align 1
@.str.1 = private unnamed_addr constant [3 x i8] c"%s\00", align 1
@.str.2 = private unnamed_addr constant [6 x i8] c"error\00", align 1
@.str.3 = private unnamed_addr constant [4 x i8] c"yes\00", align 1
@.str.4 = private unnamed_addr constant [3 x i8] c"no\00", align 1

; Function Attrs: noinline nounwind uwtable
define dso_local i32 @main() #0 {
  %1 = alloca i32, align 4
  %2 = alloca double, align 8
  %3 = alloca double, align 8
  %4 = alloca i32, align 4
  %5 = alloca i32, align 4
  %6 = alloca i32, align 4
  %7 = alloca [2 x [501 x i8]], align 16
  store i32 0, i32* %1, align 4
  store i32 0, i32* %4, align 4
  store i32 1, i32* %5, align 4
  %8 = call i32 (i8*, ...) @__isoc99_scanf(i8* getelementptr inbounds ([4 x i8], [4 x i8]* @.str, i64 0, i64 0), double* %2)
  %9 = getelementptr inbounds [2 x [501 x i8]], [2 x [501 x i8]]* %7, i64 0, i64 0
  %10 = getelementptr inbounds [501 x i8], [501 x i8]* %9, i64 0, i64 0
  %11 = call i32 (i8*, ...) @__isoc99_scanf(i8* getelementptr inbounds ([3 x i8], [3 x i8]* @.str.1, i64 0, i64 0), i8* %10)
  %12 = getelementptr inbounds [2 x [501 x i8]], [2 x [501 x i8]]* %7, i64 0, i64 1
  %13 = getelementptr inbounds [501 x i8], [501 x i8]* %12, i64 0, i64 0
  %14 = call i32 (i8*, ...) @__isoc99_scanf(i8* getelementptr inbounds ([3 x i8], [3 x i8]* @.str.1, i64 0, i64 0), i8* %13)
  store i32 0, i32* %6, align 4
  br label %15

15:                                               ; preds = %120, %0
  %16 = load i32, i32* %6, align 4
  %17 = icmp slt i32 %16, 501
  br i1 %17, label %18, label %123

18:                                               ; preds = %15
  %19 = getelementptr inbounds [2 x [501 x i8]], [2 x [501 x i8]]* %7, i64 0, i64 0
  %20 = load i32, i32* %6, align 4
  %21 = sext i32 %20 to i64
  %22 = getelementptr inbounds [501 x i8], [501 x i8]* %19, i64 0, i64 %21
  %23 = load i8, i8* %22, align 1
  %24 = sext i8 %23 to i32
  %25 = icmp eq i32 %24, 0
  br i1 %25, label %26, label %36

26:                                               ; preds = %18
  %27 = getelementptr inbounds [2 x [501 x i8]], [2 x [501 x i8]]* %7, i64 0, i64 1
  %28 = load i32, i32* %6, align 4
  %29 = sext i32 %28 to i64
  %30 = getelementptr inbounds [501 x i8], [501 x i8]* %27, i64 0, i64 %29
  %31 = load i8, i8* %30, align 1
  %32 = sext i8 %31 to i32
  %33 = icmp ne i32 %32, 0
  br i1 %33, label %34, label %35

34:                                               ; preds = %26
  store i32 0, i32* %5, align 4
  br label %35

35:                                               ; preds = %34, %26
  br label %123

36:                                               ; preds = %18
  %37 = getelementptr inbounds [2 x [501 x i8]], [2 x [501 x i8]]* %7, i64 0, i64 0
  %38 = load i32, i32* %6, align 4
  %39 = sext i32 %38 to i64
  %40 = getelementptr inbounds [501 x i8], [501 x i8]* %37, i64 0, i64 %39
  %41 = load i8, i8* %40, align 1
  %42 = sext i8 %41 to i32
  %43 = icmp ne i32 %42, 65
  br i1 %43, label %44, label %69

44:                                               ; preds = %36
  %45 = getelementptr inbounds [2 x [501 x i8]], [2 x [501 x i8]]* %7, i64 0, i64 0
  %46 = load i32, i32* %6, align 4
  %47 = sext i32 %46 to i64
  %48 = getelementptr inbounds [501 x i8], [501 x i8]* %45, i64 0, i64 %47
  %49 = load i8, i8* %48, align 1
  %50 = sext i8 %49 to i32
  %51 = icmp ne i32 %50, 84
  br i1 %51, label %52, label %69

52:                                               ; preds = %44
  %53 = getelementptr inbounds [2 x [501 x i8]], [2 x [501 x i8]]* %7, i64 0, i64 0
  %54 = load i32, i32* %6, align 4
  %55 = sext i32 %54 to i64
  %56 = getelementptr inbounds [501 x i8], [501 x i8]* %53, i64 0, i64 %55
  %57 = load i8, i8* %56, align 1
  %58 = sext i8 %57 to i32
  %59 = icmp ne i32 %58, 67
  br i1 %59, label %60, label %69

60:                                               ; preds = %52
  %61 = getelementptr inbounds [2 x [501 x i8]], [2 x [501 x i8]]* %7, i64 0, i64 0
  %62 = load i32, i32* %6, align 4
  %63 = sext i32 %62 to i64
  %64 = getelementptr inbounds [501 x i8], [501 x i8]* %61, i64 0, i64 %63
  %65 = load i8, i8* %64, align 1
  %66 = sext i8 %65 to i32
  %67 = icmp ne i32 %66, 71
  br i1 %67, label %68, label %69

68:                                               ; preds = %60
  store i32 0, i32* %5, align 4
  br label %123

69:                                               ; preds = %60, %52, %44, %36
  %70 = getelementptr inbounds [2 x [501 x i8]], [2 x [501 x i8]]* %7, i64 0, i64 1
  %71 = load i32, i32* %6, align 4
  %72 = sext i32 %71 to i64
  %73 = getelementptr inbounds [501 x i8], [501 x i8]* %70, i64 0, i64 %72
  %74 = load i8, i8* %73, align 1
  %75 = sext i8 %74 to i32
  %76 = icmp ne i32 %75, 65
  br i1 %76, label %77, label %102

77:                                               ; preds = %69
  %78 = getelementptr inbounds [2 x [501 x i8]], [2 x [501 x i8]]* %7, i64 0, i64 1
  %79 = load i32, i32* %6, align 4
  %80 = sext i32 %79 to i64
  %81 = getelementptr inbounds [501 x i8], [501 x i8]* %78, i64 0, i64 %80
  %82 = load i8, i8* %81, align 1
  %83 = sext i8 %82 to i32
  %84 = icmp ne i32 %83, 84
  br i1 %84, label %85, label %102

85:                                               ; preds = %77
  %86 = getelementptr inbounds [2 x [501 x i8]], [2 x [501 x i8]]* %7, i64 0, i64 1
  %87 = load i32, i32* %6, align 4
  %88 = sext i32 %87 to i64
  %89 = getelementptr inbounds [501 x i8], [501 x i8]* %86, i64 0, i64 %88
  %90 = load i8, i8* %89, align 1
  %91 = sext i8 %90 to i32
  %92 = icmp ne i32 %91, 67
  br i1 %92, label %93, label %102

93:                                               ; preds = %85
  %94 = getelementptr inbounds [2 x [501 x i8]], [2 x [501 x i8]]* %7, i64 0, i64 1
  %95 = load i32, i32* %6, align 4
  %96 = sext i32 %95 to i64
  %97 = getelementptr inbounds [501 x i8], [501 x i8]* %94, i64 0, i64 %96
  %98 = load i8, i8* %97, align 1
  %99 = sext i8 %98 to i32
  %100 = icmp ne i32 %99, 71
  br i1 %100, label %101, label %102

101:                                              ; preds = %93
  store i32 0, i32* %5, align 4
  br label %123

102:                                              ; preds = %93, %85, %77, %69
  %103 = getelementptr inbounds [2 x [501 x i8]], [2 x [501 x i8]]* %7, i64 0, i64 0
  %104 = load i32, i32* %6, align 4
  %105 = sext i32 %104 to i64
  %106 = getelementptr inbounds [501 x i8], [501 x i8]* %103, i64 0, i64 %105
  %107 = load i8, i8* %106, align 1
  %108 = sext i8 %107 to i32
  %109 = getelementptr inbounds [2 x [501 x i8]], [2 x [501 x i8]]* %7, i64 0, i64 1
  %110 = load i32, i32* %6, align 4
  %111 = sext i32 %110 to i64
  %112 = getelementptr inbounds [501 x i8], [501 x i8]* %109, i64 0, i64 %111
  %113 = load i8, i8* %112, align 1
  %114 = sext i8 %113 to i32
  %115 = icmp eq i32 %108, %114
  br i1 %115, label %116, label %119

116:                                              ; preds = %102
  %117 = load i32, i32* %4, align 4
  %118 = add nsw i32 %117, 1
  store i32 %118, i32* %4, align 4
  br label %119

119:                                              ; preds = %116, %102
  br label %120

120:                                              ; preds = %119
  %121 = load i32, i32* %6, align 4
  %122 = add nsw i32 %121, 1
  store i32 %122, i32* %6, align 4
  br label %15

123:                                              ; preds = %101, %68, %35, %15
  %124 = load i32, i32* %4, align 4
  %125 = sitofp i32 %124 to double
  %126 = fmul double %125, 1.000000e+00
  %127 = load i32, i32* %6, align 4
  %128 = sitofp i32 %127 to double
  %129 = fdiv double %126, %128
  store double %129, double* %3, align 8
  %130 = load i32, i32* %5, align 4
  %131 = icmp eq i32 %130, 0
  br i1 %131, label %132, label %134

132:                                              ; preds = %123
  %133 = call i32 (i8*, ...) @printf(i8* getelementptr inbounds ([6 x i8], [6 x i8]* @.str.2, i64 0, i64 0))
  br label %143

134:                                              ; preds = %123
  %135 = load double, double* %3, align 8
  %136 = load double, double* %2, align 8
  %137 = fcmp ogt double %135, %136
  br i1 %137, label %138, label %140

138:                                              ; preds = %134
  %139 = call i32 (i8*, ...) @printf(i8* getelementptr inbounds ([4 x i8], [4 x i8]* @.str.3, i64 0, i64 0))
  br label %142

140:                                              ; preds = %134
  %141 = call i32 (i8*, ...) @printf(i8* getelementptr inbounds ([3 x i8], [3 x i8]* @.str.4, i64 0, i64 0))
  br label %142

142:                                              ; preds = %140, %138
  br label %143

143:                                              ; preds = %142, %132
  ret i32 0
}

declare dso_local i32 @__isoc99_scanf(i8*, ...) #1

declare dso_local i32 @printf(i8*, ...) #1


!llvm.module.flags = !{!0}
!llvm.ident = !{!1}

!0 = !{i32 1, !"wchar_size", i32 4}
!1 = !{!"clang version 10.0.0-4ubuntu1 "}
